target datalayout = "e-m:e-p270:32:32-p271:32:32-p272:64:64-i64:64-i128:128-f80:128-n8:16:32:64-S128"
target triple = "x86_64-pc-linux-gnu"

%struct.slurmdb_assoc_rec = type { ptr, ptr, ptr, ptr, ptr, ptr, ptr, i32, i32, i32, i32, i32, ptr, ptr, ptr, ptr, ptr, ptr, i32, i32, i16, ptr, ptr, i32, i32, i32, ptr, ptr, ptr, ptr, ptr, ptr, ptr, ptr, i32, i32, ptr, i32, ptr, i32, ptr, i32, i32, ptr, ptr, ptr }
%struct.sacctmgr_file_opts_t = type { i32, %struct.slurmdb_assoc_rec, i16, ptr, ptr, ptr, ptr, ptr, ptr, ptr }

@.str.65 = private unnamed_addr constant [17 x i8] c"file_functions.c\00", align 1
@.str.173 = private unnamed_addr constant [44 x i8] c"No cluster name was given for _set_assoc_up\00", align 1
@.str.174 = private unnamed_addr constant [38 x i8] c"No parent was given for _set_assoc_up\00", align 1
@__func__._set_assoc_up = private unnamed_addr constant [14 x i8] c"_set_assoc_up\00", align 1
@.str.175 = private unnamed_addr constant [38 x i8] c"Unknown mod type for _set_assoc_up %d\00", align 1

; Function Attrs: nounwind uwtable
define internal ptr @_set_assoc_up(ptr noundef %0, i32 noundef %1, ptr noundef %2, ptr noundef %3) #0 {
  %5 = alloca ptr, align 8
  %6 = alloca ptr, align 8
  %7 = alloca i32, align 4
  %8 = alloca ptr, align 8
  %9 = alloca ptr, align 8
  %10 = alloca ptr, align 8
  %11 = alloca i32, align 4
  store ptr %0, ptr %6, align 8
  store i32 %1, ptr %7, align 4
  store ptr %2, ptr %8, align 8
  store ptr %3, ptr %9, align 8
  call void @llvm.lifetime.start.p0(i64 8, ptr %10) #9
  store ptr null, ptr %10, align 8
  %12 = load ptr, ptr %8, align 8
  %13 = icmp ne ptr %12, null
  br i1 %13, label %16, label %14

14:                                               ; preds = %4
  %15 = call i32 (ptr, ...) @error(ptr noundef @.str.173)
  store ptr null, ptr %5, align 8
  store i32 1, ptr %11, align 4
  br label %107

16:                                               ; preds = %4
  %17 = load ptr, ptr %9, align 8
  %18 = icmp ne ptr %17, null
  br i1 %18, label %24, label %19

19:                                               ; preds = %16
  %20 = load i32, ptr %7, align 4
  %21 = icmp ne i32 %20, 0
  br i1 %21, label %22, label %24

22:                                               ; preds = %19
  %23 = call i32 (ptr, ...) @error(ptr noundef @.str.174)
  store ptr null, ptr %5, align 8
  store i32 1, ptr %11, align 4
  br label %107

24:                                               ; preds = %19, %16
  %25 = call ptr @slurm_xcalloc(i64 noundef 1, i64 noundef 320, i1 noundef zeroext true, i1 noundef zeroext false, ptr noundef @.str.65, i32 noundef 1826, ptr noundef @__func__._set_assoc_up)
  store ptr %25, ptr %10, align 8
  %26 = load ptr, ptr %10, align 8
  call void @slurmdb_init_assoc_rec(ptr noundef %26, i1 noundef zeroext false)
  %27 = load i32, ptr %7, align 4
  switch i32 %27, label %86 [
    i32 0, label %28
    i32 1, label %37
    i32 2, label %52
  ]

28:                                               ; preds = %24
  %29 = load ptr, ptr %9, align 8
  %30 = call ptr @xstrdup(ptr noundef %29)
  %31 = load ptr, ptr %10, align 8
  %32 = getelementptr inbounds nuw %struct.slurmdb_assoc_rec, ptr %31, i32 0, i32 1
  store ptr %30, ptr %32, align 8
  %33 = load ptr, ptr %8, align 8
  %34 = call ptr @xstrdup(ptr noundef %33)
  %35 = load ptr, ptr %10, align 8
  %36 = getelementptr inbounds nuw %struct.slurmdb_assoc_rec, ptr %35, i32 0, i32 5
  store ptr %34, ptr %36, align 8
  br label %90

37:                                               ; preds = %24
  %38 = load ptr, ptr %6, align 8
  %39 = getelementptr inbounds nuw %struct.sacctmgr_file_opts_t, ptr %38, i32 0, i32 7
  %40 = load ptr, ptr %39, align 8
  %41 = call ptr @xstrdup(ptr noundef %40)
  %42 = load ptr, ptr %10, align 8
  %43 = getelementptr inbounds nuw %struct.slurmdb_assoc_rec, ptr %42, i32 0, i32 1
  store ptr %41, ptr %43, align 8
  %44 = load ptr, ptr %8, align 8
  %45 = call ptr @xstrdup(ptr noundef %44)
  %46 = load ptr, ptr %10, align 8
  %47 = getelementptr inbounds nuw %struct.slurmdb_assoc_rec, ptr %46, i32 0, i32 5
  store ptr %45, ptr %47, align 8
  %48 = load ptr, ptr %9, align 8
  %49 = call ptr @xstrdup(ptr noundef %48)
  %50 = load ptr, ptr %10, align 8
  %51 = getelementptr inbounds nuw %struct.slurmdb_assoc_rec, ptr %50, i32 0, i32 36
  store ptr %49, ptr %51, align 8
  br label %90

52:                                               ; preds = %24
  %53 = load ptr, ptr %9, align 8
  %54 = call ptr @xstrdup(ptr noundef %53)
  %55 = load ptr, ptr %10, align 8
  %56 = getelementptr inbounds nuw %struct.slurmdb_assoc_rec, ptr %55, i32 0, i32 1
  store ptr %54, ptr %56, align 8
  %57 = load ptr, ptr %8, align 8
  %58 = call ptr @xstrdup(ptr noundef %57)
  %59 = load ptr, ptr %10, align 8
  %60 = getelementptr inbounds nuw %struct.slurmdb_assoc_rec, ptr %59, i32 0, i32 5
  store ptr %58, ptr %60, align 8
  %61 = load ptr, ptr %6, align 8
  %62 = getelementptr inbounds nuw %struct.sacctmgr_file_opts_t, ptr %61, i32 0, i32 1
  %63 = getelementptr inbounds nuw %struct.slurmdb_assoc_rec, ptr %62, i32 0, i32 38
  %64 = load ptr, ptr %63, align 8
  %65 = call ptr @xstrdup(ptr noundef %64)
  %66 = load ptr, ptr %10, align 8
  %67 = getelementptr inbounds nuw %struct.slurmdb_assoc_rec, ptr %66, i32 0, i32 38
  store ptr %65, ptr %67, align 8
  %68 = load ptr, ptr %6, align 8
  %69 = getelementptr inbounds nuw %struct.sacctmgr_file_opts_t, ptr %68, i32 0, i32 7
  %70 = load ptr, ptr %69, align 8
  %71 = call ptr @xstrdup(ptr noundef %70)
  %72 = load ptr, ptr %10, align 8
  %73 = getelementptr inbounds nuw %struct.slurmdb_assoc_rec, ptr %72, i32 0, i32 44
  store ptr %71, ptr %73, align 8
  %74 = load ptr, ptr %10, align 8
  %75 = getelementptr inbounds nuw %struct.slurmdb_assoc_rec, ptr %74, i32 0, i32 1
  %76 = load ptr, ptr %75, align 8
  %77 = load ptr, ptr %6, align 8
  %78 = getelementptr inbounds nuw %struct.sacctmgr_file_opts_t, ptr %77, i32 0, i32 4
  %79 = load ptr, ptr %78, align 8
  %80 = call i32 @xstrcmp(ptr noundef %76, ptr noundef %79)
  %81 = icmp ne i32 %80, 0
  br i1 %81, label %85, label %82

82:                                               ; preds = %52
  %83 = load ptr, ptr %10, align 8
  %84 = getelementptr inbounds nuw %struct.slurmdb_assoc_rec, ptr %83, i32 0, i32 20
  store i16 1, ptr %84, align 8
  br label %85

85:                                               ; preds = %82, %52
  br label %90

86:                                               ; preds = %24
  %87 = load i32, ptr %7, align 4
  %88 = call i32 (ptr, ...) @error(ptr noundef @.str.175, i32 noundef %87)
  %89 = load ptr, ptr %10, align 8
  call void @slurmdb_destroy_assoc_rec(ptr noundef %89)
  store ptr null, ptr %10, align 8
  br label %90

90:                                               ; preds = %86, %85, %37, %28
  %91 = load ptr, ptr %6, align 8
  %92 = getelementptr inbounds nuw %struct.sacctmgr_file_opts_t, ptr %91, i32 0, i32 1
  %93 = getelementptr inbounds nuw %struct.slurmdb_assoc_rec, ptr %92, i32 0, i32 41
  %94 = load i32, ptr %93, align 8
  %95 = load ptr, ptr %10, align 8
  %96 = getelementptr inbounds nuw %struct.slurmdb_assoc_rec, ptr %95, i32 0, i32 41
  store i32 %94, ptr %96, align 8
  %97 = load ptr, ptr %6, align 8
  %98 = getelementptr inbounds nuw %struct.sacctmgr_file_opts_t, ptr %97, i32 0, i32 1
  %99 = getelementptr inbounds nuw %struct.slurmdb_assoc_rec, ptr %98, i32 0, i32 7
  %100 = load i32, ptr %99, align 8
  %101 = load ptr, ptr %10, align 8
  %102 = getelementptr inbounds nuw %struct.slurmdb_assoc_rec, ptr %101, i32 0, i32 7
  store i32 %100, ptr %102, align 8
  %103 = load ptr, ptr %10, align 8
  %104 = load ptr, ptr %6, align 8
  %105 = getelementptr inbounds nuw %struct.sacctmgr_file_opts_t, ptr %104, i32 0, i32 1
  call void @slurmdb_copy_assoc_rec_limits(ptr noundef %103, ptr noundef %105)
  %106 = load ptr, ptr %10, align 8
  store ptr %106, ptr %5, align 8
  store i32 1, ptr %11, align 4
  br label %107

107:                                              ; preds = %90, %22, %14
  call void @llvm.lifetime.end.p0(i64 8, ptr %10) #9
  %108 = load ptr, ptr %5, align 8
  ret ptr %108
}