; Function Attrs: nounwind uwtable
define internal fastcc noundef ptr @_set_assoc_up(ptr noundef nonnull %0, i32 noundef range(i32 0, 3) %1, ptr noundef %2, ptr noundef %3) unnamed_addr #0 {
  %.not = icmp eq ptr %2, null
  br i1 %.not, label %5, label %7

5:                                                ; preds = %4
  %6 = tail call i32 (ptr, ...) @error(ptr noundef nonnull @.str.173) #12
  br label %55

7:                                                ; preds = %4
  %8 = icmp eq ptr %3, null
  %9 = icmp ne i32 %1, 0
  %or.cond = and i1 %9, %8
  br i1 %or.cond, label %10, label %12

10:                                               ; preds = %7
  %11 = tail call i32 (ptr, ...) @error(ptr noundef nonnull @.str.174) #12
  br label %55

12:                                               ; preds = %7
  %13 = tail call ptr @slurm_xcalloc(i64 noundef 1, i64 noundef 320, i1 noundef zeroext true, i1 noundef zeroext false, ptr noundef nonnull @.str.65, i32 noundef 1826, ptr noundef nonnull @__func__._set_assoc_up) #12
  tail call void @slurmdb_init_assoc_rec(ptr noundef %13, i1 noundef zeroext false) #12
  switch i32 %1, label %default.unreachable39 [
    i32 0, label %14
    i32 1, label %19
    i32 2, label %28
  ]

14:                                               ; preds = %12
  %15 = tail call ptr @xstrdup(ptr noundef %3) #12
  %16 = getelementptr inbounds nuw i8, ptr %13, i64 8
  store ptr %15, ptr %16, align 8
  %17 = tail call ptr @xstrdup(ptr noundef nonnull %2) #12
  %18 = getelementptr inbounds nuw i8, ptr %13, i64 40
  store ptr %17, ptr %18, align 8
  br label %47

19:                                               ; preds = %12
  %20 = getelementptr inbounds nuw i8, ptr %0, i64 368
  %21 = load ptr, ptr %20, align 8
  %22 = tail call ptr @xstrdup(ptr noundef %21) #12
  %23 = getelementptr inbounds nuw i8, ptr %13, i64 8
  store ptr %22, ptr %23, align 8
  %24 = tail call ptr @xstrdup(ptr noundef nonnull %2) #12
  %25 = getelementptr inbounds nuw i8, ptr %13, i64 40
  store ptr %24, ptr %25, align 8
  %26 = tail call ptr @xstrdup(ptr noundef %3) #12
  %27 = getelementptr inbounds nuw i8, ptr %13, i64 248
  store ptr %26, ptr %27, align 8
  br label %47

28:                                               ; preds = %12
  %29 = tail call ptr @xstrdup(ptr noundef %3) #12
  %30 = getelementptr inbounds nuw i8, ptr %13, i64 8
  store ptr %29, ptr %30, align 8
  %31 = tail call ptr @xstrdup(ptr noundef nonnull %2) #12
  %32 = getelementptr inbounds nuw i8, ptr %13, i64 40
  store ptr %31, ptr %32, align 8
  %33 = getelementptr inbounds nuw i8, ptr %0, i64 272
  %34 = load ptr, ptr %33, align 8
  %35 = tail call ptr @xstrdup(ptr noundef %34) #12
  %36 = getelementptr inbounds nuw i8, ptr %13, i64 264
  store ptr %35, ptr %36, align 8
  %37 = getelementptr inbounds nuw i8, ptr %0, i64 368
  %38 = load ptr, ptr %37, align 8
  %39 = tail call ptr @xstrdup(ptr noundef %38) #12
  %40 = getelementptr inbounds nuw i8, ptr %13, i64 304
  store ptr %39, ptr %40, align 8
  %41 = load ptr, ptr %30, align 8
  %42 = getelementptr inbounds nuw i8, ptr %0, i64 344
  %43 = load ptr, ptr %42, align 8
  %44 = tail call i32 @xstrcmp(ptr noundef %41, ptr noundef %43) #12
  %.not38 = icmp eq i32 %44, 0
  br i1 %.not38, label %45, label %47

45:                                               ; preds = %28
  %46 = getelementptr inbounds nuw i8, ptr %13, i64 136
  store i16 1, ptr %46, align 8
  br label %47

default.unreachable39:                            ; preds = %12
  unreachable

47:                                               ; preds = %28, %45, %19, %14
  %48 = getelementptr inbounds nuw i8, ptr %0, i64 8
  %49 = getelementptr inbounds nuw i8, ptr %0, i64 296
  %50 = load i32, ptr %49, align 8
  %51 = getelementptr inbounds nuw i8, ptr %13, i64 288
  store i32 %50, ptr %51, align 8
  %52 = getelementptr inbounds nuw i8, ptr %0, i64 64
  %53 = load i32, ptr %52, align 8
  %54 = getelementptr inbounds nuw i8, ptr %13, i64 56
  store i32 %53, ptr %54, align 8
  tail call void @slurmdb_copy_assoc_rec_limits(ptr noundef nonnull %13, ptr noundef nonnull %48) #12
  br label %55

55:                                               ; preds = %47, %10, %5
  %.036 = phi ptr [ null, %10 ], [ %13, %47 ], [ null, %5 ]
  ret ptr %.036
}